; Function Attrs: mustprogress nounwind uwtable
define void @_ZN32pxrInternal_v0_24__pxrReserved__21SdfBatchNamespaceEditD2Ev(ptr noundef nonnull readonly align 8 captures(none) dereferenceable(24) %0) unnamed_addr #2 align 2 personality ptr @__gxx_personality_v0 {
  %2 = load ptr, ptr %0, align 8
  %3 = getelementptr inbounds nuw i8, ptr %0, i64 8
  %4 = load ptr, ptr %3, align 8
  invoke void @_ZNSt12_Destroy_auxILb0EE9__destroyIPN32pxrInternal_v0_24__pxrReserved__16SdfNamespaceEditEEEvT_S5_(ptr noundef %2, ptr noundef %4)
          to label %_ZSt8_DestroyIPN32pxrInternal_v0_24__pxrReserved__16SdfNamespaceEditES1_EvT_S3_RSaIT0_E.exit.i unwind label %12

_ZSt8_DestroyIPN32pxrInternal_v0_24__pxrReserved__16SdfNamespaceEditES1_EvT_S3_RSaIT0_E.exit.i: ; preds = %1
  %5 = load ptr, ptr %0, align 8
  %.not.i.i.i = icmp eq ptr %5, null
  br i1 %.not.i.i.i, label %_ZNSt6vectorIN32pxrInternal_v0_24__pxrReserved__16SdfNamespaceEditESaIS1_EED2Ev.exit, label %6

6:                                                ; preds = %_ZSt8_DestroyIPN32pxrInternal_v0_24__pxrReserved__16SdfNamespaceEditES1_EvT_S3_RSaIT0_E.exit.i
  %7 = getelementptr inbounds nuw i8, ptr %0, i64 16
  %8 = load ptr, ptr %7, align 8
  %9 = ptrtoint ptr %8 to i64
  %10 = ptrtoint ptr %5 to i64
  %11 = sub i64 %9, %10
  tail call void @_ZdlPvm(ptr noundef nonnull %5, i64 noundef %11) #25
  br label %_ZNSt6vectorIN32pxrInternal_v0_24__pxrReserved__16SdfNamespaceEditESaIS1_EED2Ev.exit

12:                                               ; preds = %1
  %13 = landingpad { ptr, i32 }
          catch ptr null
  %14 = extractvalue { ptr, i32 } %13, 0
  tail call void @__clang_call_terminate(ptr %14) #23
  unreachable

_ZNSt6vectorIN32pxrInternal_v0_24__pxrReserved__16SdfNamespaceEditESaIS1_EED2Ev.exit: ; preds = %_ZSt8_DestroyIPN32pxrInternal_v0_24__pxrReserved__16SdfNamespaceEditES1_EvT_S3_RSaIT0_E.exit.i, %6
  ret void
}